target datalayout = "e-m:e-p270:32:32-p271:32:32-p272:64:64-i64:64-i128:128-f80:128-n8:16:32:64-S128"
target triple = "x86_64-pc-linux-gnu"

%struct.AVFilterContext = type { ptr, ptr, ptr, ptr, ptr, i32, ptr, ptr, i32, ptr, ptr, i32, i32, ptr, ptr, ptr, ptr, i32, ptr, i32, i32 }
%struct.DrawBoxContext = type { ptr, i32, i32, i32, i32, i32, ptr, [4 x i8], [4 x i8], [4 x i8], i32, i32, i32, ptr, ptr, ptr, ptr, ptr, ptr, i32, i32, i32, i32, ptr }
%struct.AVFilterLink = type { ptr, ptr, ptr, ptr, i32, i32, i32, i32, %struct.AVRational, i32, i32, i32, %struct.AVChannelLayout, %struct.AVRational, ptr, i32, %struct.AVFilterFormatsConfig, %struct.AVFilterFormatsConfig }
%struct.AVChannelLayout = type { i32, i32, %union.anon.1, ptr }
%union.anon.1 = type { i64 }
%struct.AVRational = type { i32, i32 }
%struct.AVFilterFormatsConfig = type { ptr, ptr, ptr, ptr, ptr }
%struct.AVFrameSideData = type { i32, ptr, i64, ptr, ptr }
%struct.AVDetectionBBoxHeader = type { [256 x i8], i32, i64, i64 }
%struct.AVDetectionBBox = type { i32, i32, i32, i32, [64 x i8], %struct.AVRational, i32, [4 x [64 x i8]], [4 x %struct.AVRational] }
%struct.AVFrame = type { [8 x ptr], [8 x i32], ptr, i32, i32, i32, i32, i32, %struct.AVRational, i64, i64, %struct.AVRational, i32, ptr, i32, i32, [8 x ptr], ptr, i32, ptr, i32, i32, i32, i32, i32, i32, i32, i64, ptr, i32, ptr, ptr, i64, i64, i64, i64, ptr, %struct.AVChannelLayout, i64 }

@.str.5 = private unnamed_addr constant [22 x i8] c"No detection bboxes.\0A\00", align 1
@.str.6 = private unnamed_addr constant [30 x i8] c"Assertion %s failed at %s:%d\0A\00", align 1
@.str.7 = private unnamed_addr constant [24 x i8] c"idx < header->nb_bboxes\00", align 1
@.str.8 = private unnamed_addr constant [29 x i8] c"./libavutil/detection_bbox.h\00", align 1

; Function Attrs: alwaysinline nounwind uwtable
define internal ptr @av_get_detection_bbox(ptr noundef %0, i32 noundef %1) #4 {
  %3 = alloca ptr, align 8
  %4 = alloca i32, align 4
  store ptr %0, ptr %3, align 8, !tbaa !51
  store i32 %1, ptr %4, align 4, !tbaa !31
  br label %5

5:                                                ; preds = %2
  %6 = load i32, ptr %4, align 4, !tbaa !31
  %7 = load ptr, ptr %3, align 8, !tbaa !51
  %8 = getelementptr inbounds nuw %struct.AVDetectionBBoxHeader, ptr %7, i32 0, i32 1
  %9 = load i32, ptr %8, align 8, !tbaa !59
  %10 = icmp ult i32 %6, %9
  br i1 %10, label %12, label %11

11:                                               ; preds = %5
  call void (ptr, i32, ptr, ...) @av_log(ptr noundef null, i32 noundef 0, ptr noundef @.str.6, ptr noundef @.str.7, ptr noundef @.str.8, i32 noundef 86)
  call void @abort() #13
  unreachable

12:                                               ; preds = %5
  br label %13

13:                                               ; preds = %12
  %14 = load ptr, ptr %3, align 8, !tbaa !51
  %15 = load ptr, ptr %3, align 8, !tbaa !51
  %16 = getelementptr inbounds nuw %struct.AVDetectionBBoxHeader, ptr %15, i32 0, i32 2
  %17 = load i64, ptr %16, align 8, !tbaa !99
  %18 = getelementptr inbounds nuw i8, ptr %14, i64 %17
  %19 = load i32, ptr %4, align 4, !tbaa !31
  %20 = zext i32 %19 to i64
  %21 = load ptr, ptr %3, align 8, !tbaa !51
  %22 = getelementptr inbounds nuw %struct.AVDetectionBBoxHeader, ptr %21, i32 0, i32 3
  %23 = load i64, ptr %22, align 8, !tbaa !100
  %24 = mul i64 %20, %23
  %25 = getelementptr inbounds nuw i8, ptr %18, i64 %24
  ret ptr %25
}

; Function Attrs: nounwind uwtable
define internal i32 @filter_frame(ptr noundef %0, ptr noundef %1) #1 {
  %3 = alloca i32, align 4
  %4 = alloca ptr, align 8
  %5 = alloca ptr, align 8
  %6 = alloca ptr, align 8
  %7 = alloca ptr, align 8
  %8 = alloca ptr, align 8
  %9 = alloca ptr, align 8
  %10 = alloca i32, align 4
  %11 = alloca i32, align 4
  %12 = alloca i32, align 4
  store ptr %0, ptr %4, align 8, !tbaa !33
  store ptr %1, ptr %5, align 8, !tbaa !41
  call void @llvm.lifetime.start.p0(i64 8, ptr %6) #10
  %13 = load ptr, ptr %4, align 8, !tbaa !33
  %14 = getelementptr inbounds nuw %struct.AVFilterLink, ptr %13, i32 0, i32 2
  %15 = load ptr, ptr %14, align 8, !tbaa !43
  %16 = getelementptr inbounds nuw %struct.AVFilterContext, ptr %15, i32 0, i32 9
  %17 = load ptr, ptr %16, align 8, !tbaa !9
  store ptr %17, ptr %6, align 8, !tbaa !22
  call void @llvm.lifetime.start.p0(i64 8, ptr %7) #10
  store ptr null, ptr %7, align 8, !tbaa !51
  call void @llvm.lifetime.start.p0(i64 8, ptr %8) #10
  call void @llvm.lifetime.start.p0(i64 8, ptr %9) #10
  call void @llvm.lifetime.start.p0(i64 4, ptr %10) #10
  store i32 1, ptr %10, align 4, !tbaa !31
  %18 = load ptr, ptr %6, align 8, !tbaa !22
  %19 = getelementptr inbounds nuw %struct.DrawBoxContext, ptr %18, i32 0, i32 22
  %20 = load i32, ptr %19, align 4, !tbaa !26
  %21 = icmp eq i32 %20, 22
  br i1 %21, label %22, label %46

22:                                               ; preds = %2
  %23 = load ptr, ptr %5, align 8, !tbaa !41
  %24 = call ptr @av_frame_get_side_data(ptr noundef %23, i32 noundef 22)
  store ptr %24, ptr %9, align 8, !tbaa !53
  %25 = load ptr, ptr %9, align 8, !tbaa !53
  %26 = icmp ne ptr %25, null
  br i1 %26, label %27, label %34

27:                                               ; preds = %22
  %28 = load ptr, ptr %9, align 8, !tbaa !53
  %29 = getelementptr inbounds nuw %struct.AVFrameSideData, ptr %28, i32 0, i32 1
  %30 = load ptr, ptr %29, align 8, !tbaa !55
  store ptr %30, ptr %7, align 8, !tbaa !51
  %31 = load ptr, ptr %7, align 8, !tbaa !51
  %32 = getelementptr inbounds nuw %struct.AVDetectionBBoxHeader, ptr %31, i32 0, i32 1
  %33 = load i32, ptr %32, align 8, !tbaa !59
  store i32 %33, ptr %10, align 4, !tbaa !31
  br label %45

34:                                               ; preds = %22
  %35 = load ptr, ptr %6, align 8, !tbaa !22
  call void (ptr, i32, ptr, ...) @av_log(ptr noundef %35, i32 noundef 24, ptr noundef @.str.5)
  %36 = load ptr, ptr %4, align 8, !tbaa !33
  %37 = getelementptr inbounds nuw %struct.AVFilterLink, ptr %36, i32 0, i32 2
  %38 = load ptr, ptr %37, align 8, !tbaa !43
  %39 = getelementptr inbounds nuw %struct.AVFilterContext, ptr %38, i32 0, i32 7
  %40 = load ptr, ptr %39, align 8, !tbaa !61
  %41 = getelementptr inbounds ptr, ptr %40, i64 0
  %42 = load ptr, ptr %41, align 8, !tbaa !33
  %43 = load ptr, ptr %5, align 8, !tbaa !41
  %44 = call i32 @ff_filter_frame(ptr noundef %42, ptr noundef %43)
  store i32 %44, ptr %3, align 4
  store i32 1, ptr %11, align 4
  br label %170

45:                                               ; preds = %27
  br label %46

46:                                               ; preds = %45, %2
  call void @llvm.lifetime.start.p0(i64 4, ptr %12) #10
  store i32 0, ptr %12, align 4, !tbaa !31
  br label %47

47:                                               ; preds = %157, %46
  %48 = load i32, ptr %12, align 4, !tbaa !31
  %49 = load i32, ptr %10, align 4, !tbaa !31
  %50 = icmp slt i32 %48, %49
  br i1 %50, label %52, label %51

51:                                               ; preds = %47
  store i32 2, ptr %11, align 4
  call void @llvm.lifetime.end.p0(i64 4, ptr %12) #10
  br label %160

52:                                               ; preds = %47
  %53 = load ptr, ptr %7, align 8, !tbaa !51
  %54 = icmp ne ptr %53, null
  br i1 %54, label %55, label %79

55:                                               ; preds = %52
  %56 = load ptr, ptr %7, align 8, !tbaa !51
  %57 = load i32, ptr %12, align 4, !tbaa !31
  %58 = call ptr @av_get_detection_bbox(ptr noundef %56, i32 noundef %57)
  store ptr %58, ptr %8, align 8, !tbaa !62
  %59 = load ptr, ptr %8, align 8, !tbaa !62
  %60 = getelementptr inbounds nuw %struct.AVDetectionBBox, ptr %59, i32 0, i32 1
  %61 = load i32, ptr %60, align 4, !tbaa !64
  %62 = load ptr, ptr %6, align 8, !tbaa !22
  %63 = getelementptr inbounds nuw %struct.DrawBoxContext, ptr %62, i32 0, i32 2
  store i32 %61, ptr %63, align 4, !tbaa !36
  %64 = load ptr, ptr %8, align 8, !tbaa !62
  %65 = getelementptr inbounds nuw %struct.AVDetectionBBox, ptr %64, i32 0, i32 0
  %66 = load i32, ptr %65, align 4, !tbaa !66
  %67 = load ptr, ptr %6, align 8, !tbaa !22
  %68 = getelementptr inbounds nuw %struct.DrawBoxContext, ptr %67, i32 0, i32 1
  store i32 %66, ptr %68, align 8, !tbaa !35
  %69 = load ptr, ptr %8, align 8, !tbaa !62
  %70 = getelementptr inbounds nuw %struct.AVDetectionBBox, ptr %69, i32 0, i32 3
  %71 = load i32, ptr %70, align 4, !tbaa !67
  %72 = load ptr, ptr %6, align 8, !tbaa !22
  %73 = getelementptr inbounds nuw %struct.DrawBoxContext, ptr %72, i32 0, i32 4
  store i32 %71, ptr %73, align 4, !tbaa !38
  %74 = load ptr, ptr %8, align 8, !tbaa !62
  %75 = getelementptr inbounds nuw %struct.AVDetectionBBox, ptr %74, i32 0, i32 2
  %76 = load i32, ptr %75, align 4, !tbaa !68
  %77 = load ptr, ptr %6, align 8, !tbaa !22
  %78 = getelementptr inbounds nuw %struct.DrawBoxContext, ptr %77, i32 0, i32 3
  store i32 %76, ptr %78, align 8, !tbaa !37
  br label %79

79:                                               ; preds = %55, %52
  %80 = load ptr, ptr %6, align 8, !tbaa !22
  %81 = getelementptr inbounds nuw %struct.DrawBoxContext, ptr %80, i32 0, i32 23
  %82 = load ptr, ptr %81, align 8, !tbaa !69
  %83 = load ptr, ptr %5, align 8, !tbaa !41
  %84 = load ptr, ptr %6, align 8, !tbaa !22
  %85 = load ptr, ptr %6, align 8, !tbaa !22
  %86 = getelementptr inbounds nuw %struct.DrawBoxContext, ptr %85, i32 0, i32 1
  %87 = load i32, ptr %86, align 8, !tbaa !35
  %88 = icmp sgt i32 %87, 0
  br i1 %88, label %89, label %93

89:                                               ; preds = %79
  %90 = load ptr, ptr %6, align 8, !tbaa !22
  %91 = getelementptr inbounds nuw %struct.DrawBoxContext, ptr %90, i32 0, i32 1
  %92 = load i32, ptr %91, align 8, !tbaa !35
  br label %94

93:                                               ; preds = %79
  br label %94

94:                                               ; preds = %93, %89
  %95 = phi i32 [ %92, %89 ], [ 0, %93 ]
  %96 = load ptr, ptr %6, align 8, !tbaa !22
  %97 = getelementptr inbounds nuw %struct.DrawBoxContext, ptr %96, i32 0, i32 2
  %98 = load i32, ptr %97, align 4, !tbaa !36
  %99 = icmp sgt i32 %98, 0
  br i1 %99, label %100, label %104

100:                                              ; preds = %94
  %101 = load ptr, ptr %6, align 8, !tbaa !22
  %102 = getelementptr inbounds nuw %struct.DrawBoxContext, ptr %101, i32 0, i32 2
  %103 = load i32, ptr %102, align 4, !tbaa !36
  br label %105

104:                                              ; preds = %94
  br label %105

105:                                              ; preds = %104, %100
  %106 = phi i32 [ %103, %100 ], [ 0, %104 ]
  %107 = load ptr, ptr %6, align 8, !tbaa !22
  %108 = getelementptr inbounds nuw %struct.DrawBoxContext, ptr %107, i32 0, i32 1
  %109 = load i32, ptr %108, align 8, !tbaa !35
  %110 = load ptr, ptr %6, align 8, !tbaa !22
  %111 = getelementptr inbounds nuw %struct.DrawBoxContext, ptr %110, i32 0, i32 3
  %112 = load i32, ptr %111, align 8, !tbaa !37
  %113 = add nsw i32 %109, %112
  %114 = load ptr, ptr %5, align 8, !tbaa !41
  %115 = getelementptr inbounds nuw %struct.AVFrame, ptr %114, i32 0, i32 3
  %116 = load i32, ptr %115, align 8, !tbaa !70
  %117 = icmp sgt i32 %113, %116
  br i1 %117, label %118, label %122

118:                                              ; preds = %105
  %119 = load ptr, ptr %5, align 8, !tbaa !41
  %120 = getelementptr inbounds nuw %struct.AVFrame, ptr %119, i32 0, i32 3
  %121 = load i32, ptr %120, align 8, !tbaa !70
  br label %130

122:                                              ; preds = %105
  %123 = load ptr, ptr %6, align 8, !tbaa !22
  %124 = getelementptr inbounds nuw %struct.DrawBoxContext, ptr %123, i32 0, i32 1
  %125 = load i32, ptr %124, align 8, !tbaa !35
  %126 = load ptr, ptr %6, align 8, !tbaa !22
  %127 = getelementptr inbounds nuw %struct.DrawBoxContext, ptr %126, i32 0, i32 3
  %128 = load i32, ptr %127, align 8, !tbaa !37
  %129 = add nsw i32 %125, %128
  br label %130

130:                                              ; preds = %122, %118
  %131 = phi i32 [ %121, %118 ], [ %129, %122 ]
  %132 = load ptr, ptr %6, align 8, !tbaa !22
  %133 = getelementptr inbounds nuw %struct.DrawBoxContext, ptr %132, i32 0, i32 2
  %134 = load i32, ptr %133, align 4, !tbaa !36
  %135 = load ptr, ptr %6, align 8, !tbaa !22
  %136 = getelementptr inbounds nuw %struct.DrawBoxContext, ptr %135, i32 0, i32 4
  %137 = load i32, ptr %136, align 4, !tbaa !38
  %138 = add nsw i32 %134, %137
  %139 = load ptr, ptr %5, align 8, !tbaa !41
  %140 = getelementptr inbounds nuw %struct.AVFrame, ptr %139, i32 0, i32 4
  %141 = load i32, ptr %140, align 4, !tbaa !74
  %142 = icmp sgt i32 %138, %141
  br i1 %142, label %143, label %147

143:                                              ; preds = %130
  %144 = load ptr, ptr %5, align 8, !tbaa !41
  %145 = getelementptr inbounds nuw %struct.AVFrame, ptr %144, i32 0, i32 4
  %146 = load i32, ptr %145, align 4, !tbaa !74
  br label %155

147:                                              ; preds = %130
  %148 = load ptr, ptr %6, align 8, !tbaa !22
  %149 = getelementptr inbounds nuw %struct.DrawBoxContext, ptr %148, i32 0, i32 2
  %150 = load i32, ptr %149, align 4, !tbaa !36
  %151 = load ptr, ptr %6, align 8, !tbaa !22
  %152 = getelementptr inbounds nuw %struct.DrawBoxContext, ptr %151, i32 0, i32 4
  %153 = load i32, ptr %152, align 4, !tbaa !38
  %154 = add nsw i32 %150, %153
  br label %155

155:                                              ; preds = %147, %143
  %156 = phi i32 [ %146, %143 ], [ %154, %147 ]
  call void %82(ptr noundef %83, ptr noundef %84, i32 noundef %95, i32 noundef %106, i32 noundef %131, i32 noundef %156, ptr noundef @pixel_belongs_to_box)
  br label %157

157:                                              ; preds = %155
  %158 = load i32, ptr %12, align 4, !tbaa !31
  %159 = add nsw i32 %158, 1
  store i32 %159, ptr %12, align 4, !tbaa !31
  br label %47, !llvm.loop !75

160:                                              ; preds = %51
  %161 = load ptr, ptr %4, align 8, !tbaa !33
  %162 = getelementptr inbounds nuw %struct.AVFilterLink, ptr %161, i32 0, i32 2
  %163 = load ptr, ptr %162, align 8, !tbaa !43
  %164 = getelementptr inbounds nuw %struct.AVFilterContext, ptr %163, i32 0, i32 7
  %165 = load ptr, ptr %164, align 8, !tbaa !61
  %166 = getelementptr inbounds ptr, ptr %165, i64 0
  %167 = load ptr, ptr %166, align 8, !tbaa !33
  %168 = load ptr, ptr %5, align 8, !tbaa !41
  %169 = call i32 @ff_filter_frame(ptr noundef %167, ptr noundef %168)
  store i32 %169, ptr %3, align 4
  store i32 1, ptr %11, align 4
  br label %170

170:                                              ; preds = %160, %34
  call void @llvm.lifetime.end.p0(i64 4, ptr %10) #10
  call void @llvm.lifetime.end.p0(i64 8, ptr %9) #10
  call void @llvm.lifetime.end.p0(i64 8, ptr %8) #10
  call void @llvm.lifetime.end.p0(i64 8, ptr %7) #10
  call void @llvm.lifetime.end.p0(i64 8, ptr %6) #10
  %171 = load i32, ptr %3, align 4
  ret i32 %171
}