; Function Attrs: nounwind uwtable
define internal i32 @filter_frame(ptr noundef readonly captures(none) %0, ptr noundef %1) #1 {
  %3 = getelementptr inbounds nuw i8, ptr %0, i64 16
  %4 = load ptr, ptr %3, align 8, !tbaa !35
  %5 = getelementptr inbounds nuw i8, ptr %4, i64 72
  %6 = load ptr, ptr %5, align 8, !tbaa !4
  %7 = getelementptr inbounds nuw i8, ptr %6, i64 124
  %8 = load i32, ptr %7, align 4, !tbaa !22
  %9 = icmp eq i32 %8, 22
  br i1 %9, label %10, label %.lr.ph.split.us

10:                                               ; preds = %2
  %11 = tail call ptr @av_frame_get_side_data(ptr noundef %1, i32 noundef 22) #10
  %.not = icmp eq ptr %11, null
  br i1 %.not, label %12, label %13

12:                                               ; preds = %10
  tail call void (ptr, i32, ptr, ...) @av_log(ptr noundef nonnull %6, i32 noundef 24, ptr noundef nonnull @.str.5) #10
  br label %._crit_edge

13:                                               ; preds = %10
  %14 = getelementptr inbounds nuw i8, ptr %11, i64 8
  %15 = load ptr, ptr %14, align 8, !tbaa !44
  %16 = getelementptr inbounds nuw i8, ptr %15, i64 256
  %17 = load i32, ptr %16, align 8, !tbaa !48
  %18 = icmp sgt i32 %17, 0
  br i1 %18, label %.lr.ph.split.preheader, label %._crit_edge

.lr.ph.split.preheader:                           ; preds = %13
  %19 = getelementptr inbounds nuw i8, ptr %15, i64 256
  %20 = getelementptr inbounds nuw i8, ptr %15, i64 264
  %21 = getelementptr inbounds nuw i8, ptr %15, i64 272
  %22 = getelementptr inbounds nuw i8, ptr %6, i64 12
  %23 = getelementptr inbounds nuw i8, ptr %6, i64 8
  %24 = getelementptr inbounds nuw i8, ptr %6, i64 20
  %25 = getelementptr inbounds nuw i8, ptr %6, i64 16
  %26 = getelementptr inbounds nuw i8, ptr %6, i64 128
  %27 = getelementptr inbounds nuw i8, ptr %1, i64 104
  %28 = getelementptr inbounds nuw i8, ptr %1, i64 108
  %wide.trip.count = zext nneg i32 %17 to i64
  br label %.lr.ph.split

.lr.ph.split.us:                                  ; preds = %2
  %29 = getelementptr inbounds nuw i8, ptr %1, i64 108
  %30 = getelementptr inbounds nuw i8, ptr %1, i64 104
  %31 = getelementptr inbounds nuw i8, ptr %6, i64 128
  %32 = getelementptr inbounds nuw i8, ptr %6, i64 16
  %33 = getelementptr inbounds nuw i8, ptr %6, i64 20
  %34 = getelementptr inbounds nuw i8, ptr %6, i64 8
  %35 = getelementptr inbounds nuw i8, ptr %6, i64 12
  %36 = load ptr, ptr %31, align 8, !tbaa !50
  %37 = load i32, ptr %34, align 8, !tbaa !29
  %spec.select.us = tail call i32 @llvm.smax.i32(i32 %37, i32 0)
  %38 = load i32, ptr %35, align 4, !tbaa !30
  %39 = tail call i32 @llvm.smax.i32(i32 %38, i32 0)
  %40 = load i32, ptr %32, align 8, !tbaa !31
  %41 = add nsw i32 %40, %37
  %42 = load i32, ptr %30, align 8, !tbaa !51
  %43 = tail call i32 @llvm.smin.i32(i32 %41, i32 %42)
  %44 = load i32, ptr %33, align 4, !tbaa !32
  %45 = add nsw i32 %44, %38
  %46 = load i32, ptr %29, align 4, !tbaa !55
  %47 = tail call i32 @llvm.smin.i32(i32 %45, i32 %46)
  tail call void %36(ptr noundef %1, ptr noundef nonnull %6, i32 noundef %spec.select.us, i32 noundef %39, i32 noundef %43, i32 noundef %47, ptr noundef nonnull @pixel_belongs_to_box) #10
  br label %._crit_edge

.lr.ph.split:                                     ; preds = %.lr.ph.split.preheader, %av_get_detection_bbox.exit
  %indvars.iv = phi i64 [ 0, %.lr.ph.split.preheader ], [ %indvars.iv.next, %av_get_detection_bbox.exit ]
  %48 = load i32, ptr %19, align 8, !tbaa !48
  %49 = zext i32 %48 to i64
  %50 = icmp samesign ult i64 %indvars.iv, %49
  br i1 %50, label %av_get_detection_bbox.exit, label %51

51:                                               ; preds = %.lr.ph.split
  tail call void (ptr, i32, ptr, ...) @av_log(ptr noundef null, i32 noundef 0, ptr noundef nonnull @.str.6, ptr noundef nonnull @.str.7, ptr noundef nonnull @.str.8, i32 noundef 86) #10
  tail call void @abort() #12
  unreachable

av_get_detection_bbox.exit:                       ; preds = %.lr.ph.split
  %52 = load i64, ptr %20, align 8, !tbaa !56
  %53 = getelementptr inbounds nuw i8, ptr %15, i64 %52
  %54 = load i64, ptr %21, align 8, !tbaa !57
  %55 = mul i64 %54, %indvars.iv
  %56 = getelementptr inbounds nuw i8, ptr %53, i64 %55
  %57 = getelementptr inbounds nuw i8, ptr %56, i64 4
  %58 = load i32, ptr %57, align 4, !tbaa !58
  store i32 %58, ptr %22, align 4, !tbaa !30
  %59 = load i32, ptr %56, align 4, !tbaa !60
  store i32 %59, ptr %23, align 8, !tbaa !29
  %60 = getelementptr inbounds nuw i8, ptr %56, i64 12
  %61 = load i32, ptr %60, align 4, !tbaa !61
  store i32 %61, ptr %24, align 4, !tbaa !32
  %62 = getelementptr inbounds nuw i8, ptr %56, i64 8
  %63 = load i32, ptr %62, align 4, !tbaa !62
  store i32 %63, ptr %25, align 8, !tbaa !31
  %64 = load ptr, ptr %26, align 8, !tbaa !50
  %spec.select = tail call i32 @llvm.smax.i32(i32 %59, i32 0)
  %65 = tail call i32 @llvm.smax.i32(i32 %58, i32 0)
  %66 = add nsw i32 %63, %59
  %67 = load i32, ptr %27, align 8, !tbaa !51
  %68 = tail call i32 @llvm.smin.i32(i32 %66, i32 %67)
  %69 = add nsw i32 %61, %58
  %70 = load i32, ptr %28, align 4, !tbaa !55
  %71 = tail call i32 @llvm.smin.i32(i32 %69, i32 %70)
  tail call void %64(ptr noundef %1, ptr noundef nonnull %6, i32 noundef %spec.select, i32 noundef %65, i32 noundef %68, i32 noundef %71, ptr noundef nonnull @pixel_belongs_to_box) #10
  %indvars.iv.next = add nuw nsw i64 %indvars.iv, 1
  %exitcond.not = icmp eq i64 %indvars.iv.next, %wide.trip.count
  br i1 %exitcond.not, label %._crit_edge, label %.lr.ph.split, !llvm.loop !63

._crit_edge:                                      ; preds = %av_get_detection_bbox.exit, %.lr.ph.split.us, %13, %12
  %72 = load ptr, ptr %3, align 8, !tbaa !35
  %73 = getelementptr inbounds nuw i8, ptr %72, i64 56
  %74 = load ptr, ptr %73, align 8, !tbaa !65
  %75 = load ptr, ptr %74, align 8, !tbaa !27
  %76 = tail call i32 @ff_filter_frame(ptr noundef %75, ptr noundef %1) #10
  ret i32 %76
}